target datalayout = "e-m:e-p270:32:32-p271:32:32-p272:64:64-i64:64-i128:128-f80:128-n8:16:32:64-S128"
target triple = "x86_64-pc-linux-gnu"

%struct.SurfaceDataRasInfo = type { %struct.SurfaceDataBounds, ptr, i32, i32, i32, i32, ptr, ptr, ptr, ptr, ptr, ptr, i32, %union.anon.0 }
%struct.SurfaceDataBounds = type { i32, i32, i32, i32 }
%union.anon.0 = type { ptr, [56 x i8] }

; Function Attrs: nounwind uwtable
define hidden void @Ushort555RgbxToIntArgbScaleConvert(ptr noundef %0, ptr noundef %1, i32 noundef %2, i32 noundef %3, i32 noundef %4, i32 noundef %5, i32 noundef %6, i32 noundef %7, i32 noundef %8, ptr noundef %9, ptr noundef %10, ptr noundef %11, ptr noundef %12) #1 {
  %14 = alloca ptr, align 8
  %15 = alloca ptr, align 8
  %16 = alloca i32, align 4
  %17 = alloca i32, align 4
  %18 = alloca i32, align 4
  %19 = alloca i32, align 4
  %20 = alloca i32, align 4
  %21 = alloca i32, align 4
  %22 = alloca i32, align 4
  %23 = alloca ptr, align 8
  %24 = alloca ptr, align 8
  %25 = alloca ptr, align 8
  %26 = alloca ptr, align 8
  %27 = alloca ptr, align 8
  %28 = alloca ptr, align 8
  %29 = alloca i32, align 4
  %30 = alloca i32, align 4
  %31 = alloca i32, align 4
  %32 = alloca i32, align 4
  %33 = alloca i32, align 4
  %34 = alloca i32, align 4
  %35 = alloca i32, align 4
  %36 = alloca i32, align 4
  %37 = alloca i16, align 2
  store ptr %0, ptr %14, align 8
  store ptr %1, ptr %15, align 8
  store i32 %2, ptr %16, align 4
  store i32 %3, ptr %17, align 4
  store i32 %4, ptr %18, align 4
  store i32 %5, ptr %19, align 4
  store i32 %6, ptr %20, align 4
  store i32 %7, ptr %21, align 4
  store i32 %8, ptr %22, align 4
  store ptr %9, ptr %23, align 8
  store ptr %10, ptr %24, align 8
  store ptr %11, ptr %25, align 8
  store ptr %12, ptr %26, align 8
  br label %38

38:                                               ; preds = %13
  %39 = load ptr, ptr %15, align 8
  store ptr %39, ptr %28, align 8
  %40 = load ptr, ptr %23, align 8
  %41 = getelementptr inbounds %struct.SurfaceDataRasInfo, ptr %40, i32 0, i32 4
  %42 = load i32, ptr %41, align 8
  store i32 %42, ptr %29, align 4
  %43 = load ptr, ptr %24, align 8
  %44 = getelementptr inbounds %struct.SurfaceDataRasInfo, ptr %43, i32 0, i32 4
  %45 = load i32, ptr %44, align 8
  store i32 %45, ptr %30, align 4
  %46 = load i32, ptr %16, align 4
  %47 = mul i32 %46, 4
  %48 = load i32, ptr %30, align 4
  %49 = sub i32 %48, %47
  store i32 %49, ptr %30, align 4
  br label %50

50:                                               ; preds = %135, %38
  %51 = load i32, ptr %16, align 4
  store i32 %51, ptr %31, align 4
  %52 = load i32, ptr %18, align 4
  store i32 %52, ptr %32, align 4
  %53 = load ptr, ptr %14, align 8
  %54 = ptrtoint ptr %53 to i64
  %55 = load i32, ptr %19, align 4
  %56 = load i32, ptr %22, align 4
  %57 = ashr i32 %55, %56
  %58 = sext i32 %57 to i64
  %59 = load i32, ptr %29, align 4
  %60 = sext i32 %59 to i64
  %61 = mul nsw i64 %58, %60
  %62 = add nsw i64 %54, %61
  %63 = inttoptr i64 %62 to ptr
  store ptr %63, ptr %27, align 8
  br label %64

64:                                               ; preds = %121, %50
  %65 = load i32, ptr %32, align 4
  %66 = load i32, ptr %22, align 4
  %67 = ashr i32 %65, %66
  store i32 %67, ptr %33, align 4
  br label %68

68:                                               ; preds = %64
  br label %69

69:                                               ; preds = %68
  %70 = load ptr, ptr %27, align 8
  %71 = load i32, ptr %33, align 4
  %72 = sext i32 %71 to i64
  %73 = getelementptr inbounds i16, ptr %70, i64 %72
  %74 = load i16, ptr %73, align 2
  store i16 %74, ptr %37, align 2
  %75 = load i16, ptr %37, align 2
  %76 = zext i16 %75 to i32
  %77 = ashr i32 %76, 11
  %78 = and i32 %77, 31
  store i32 %78, ptr %34, align 4
  %79 = load i32, ptr %34, align 4
  %80 = shl i32 %79, 3
  %81 = load i32, ptr %34, align 4
  %82 = ashr i32 %81, 2
  %83 = or i32 %80, %82
  store i32 %83, ptr %34, align 4
  %84 = load i16, ptr %37, align 2
  %85 = zext i16 %84 to i32
  %86 = ashr i32 %85, 6
  %87 = and i32 %86, 31
  store i32 %87, ptr %35, align 4
  %88 = load i32, ptr %35, align 4
  %89 = shl i32 %88, 3
  %90 = load i32, ptr %35, align 4
  %91 = ashr i32 %90, 2
  %92 = or i32 %89, %91
  store i32 %92, ptr %35, align 4
  %93 = load i16, ptr %37, align 2
  %94 = zext i16 %93 to i32
  %95 = ashr i32 %94, 1
  %96 = and i32 %95, 31
  store i32 %96, ptr %36, align 4
  %97 = load i32, ptr %36, align 4
  %98 = shl i32 %97, 3
  %99 = load i32, ptr %36, align 4
  %100 = ashr i32 %99, 2
  %101 = or i32 %98, %100
  store i32 %101, ptr %36, align 4
  br label %102

102:                                              ; preds = %69
  %103 = load i32, ptr %34, align 4
  %104 = or i32 65280, %103
  %105 = shl i32 %104, 8
  %106 = load i32, ptr %35, align 4
  %107 = or i32 %105, %106
  %108 = shl i32 %107, 8
  %109 = load i32, ptr %36, align 4
  %110 = or i32 %108, %109
  %111 = load ptr, ptr %28, align 8
  %112 = getelementptr inbounds i32, ptr %111, i64 0
  store i32 %110, ptr %112, align 4
  br label %113

113:                                              ; preds = %102
  %114 = load ptr, ptr %28, align 8
  %115 = ptrtoint ptr %114 to i64
  %116 = add nsw i64 %115, 4
  %117 = inttoptr i64 %116 to ptr
  store ptr %117, ptr %28, align 8
  %118 = load i32, ptr %20, align 4
  %119 = load i32, ptr %32, align 4
  %120 = add nsw i32 %119, %118
  store i32 %120, ptr %32, align 4
  br label %121

121:                                              ; preds = %113
  %122 = load i32, ptr %31, align 4
  %123 = add i32 %122, -1
  store i32 %123, ptr %31, align 4
  %124 = icmp ugt i32 %123, 0
  br i1 %124, label %64, label %125, !llvm.loop !19

125:                                              ; preds = %121
  %126 = load ptr, ptr %28, align 8
  %127 = ptrtoint ptr %126 to i64
  %128 = load i32, ptr %30, align 4
  %129 = sext i32 %128 to i64
  %130 = add nsw i64 %127, %129
  %131 = inttoptr i64 %130 to ptr
  store ptr %131, ptr %28, align 8
  %132 = load i32, ptr %21, align 4
  %133 = load i32, ptr %19, align 4
  %134 = add nsw i32 %133, %132
  store i32 %134, ptr %19, align 4
  br label %135

135:                                              ; preds = %125
  %136 = load i32, ptr %17, align 4
  %137 = add i32 %136, -1
  store i32 %137, ptr %17, align 4
  %138 = icmp ugt i32 %137, 0
  br i1 %138, label %50, label %139, !llvm.loop !20

139:                                              ; preds = %135
  br label %140

140:                                              ; preds = %139
  ret void
}