; Function Attrs: nofree norecurse nosync nounwind memory(readwrite, inaccessiblemem: none) uwtable
define hidden void @Ushort555RgbxToIntArgbScaleConvert(ptr noundef %0, ptr noundef %1, i32 noundef %2, i32 noundef %3, i32 noundef %4, i32 noundef %5, i32 noundef %6, i32 noundef %7, i32 noundef %8, ptr nocapture noundef readonly %9, ptr nocapture noundef readonly %10, ptr nocapture readnone %11, ptr nocapture readnone %12) #1 {
  %14 = getelementptr inbounds i8, ptr %9, i64 32
  %15 = load i32, ptr %14, align 8
  %16 = getelementptr inbounds i8, ptr %10, i64 32
  %17 = load i32, ptr %16, align 8
  %18 = shl i32 %2, 2
  %19 = sub i32 %17, %18
  %20 = sext i32 %19 to i64
  %21 = ptrtoint ptr %0 to i64
  %22 = sext i32 %15 to i64
  br label %23

23:                                               ; preds = %57, %13
  %.037 = phi ptr [ %1, %13 ], [ %59, %57 ]
  %.036 = phi i32 [ %5, %13 ], [ %60, %57 ]
  %.0 = phi i32 [ %3, %13 ], [ %61, %57 ]
  %24 = ashr i32 %.036, %8
  %25 = sext i32 %24 to i64
  %26 = mul nsw i64 %25, %22
  %27 = add nsw i64 %26, %21
  %28 = inttoptr i64 %27 to ptr
  br label %29

29:                                               ; preds = %29, %23
  %.039 = phi i32 [ %4, %23 ], [ %55, %29 ]
  %.038 = phi i32 [ %2, %23 ], [ %56, %29 ]
  %.1 = phi ptr [ %.037, %23 ], [ %54, %29 ]
  %30 = ashr i32 %.039, %8
  %31 = sext i32 %30 to i64
  %32 = getelementptr inbounds i16, ptr %28, i64 %31
  %33 = load i16, ptr %32, align 2
  %34 = zext i16 %33 to i32
  %35 = lshr i32 %34, 6
  %36 = and i32 %35, 31
  %37 = shl nuw nsw i32 %36, 3
  %38 = lshr i32 %36, 2
  %39 = or disjoint i32 %37, %38
  %40 = lshr i32 %34, 1
  %41 = and i32 %40, 31
  %42 = shl nuw nsw i32 %41, 3
  %43 = lshr i32 %41, 2
  %44 = or disjoint i32 %42, %43
  %45 = lshr i32 %34, 5
  %46 = and i32 %45, 1792
  %.mask = and i32 %34, 63488
  %47 = or disjoint i32 %.mask, %46
  %48 = or disjoint i32 %39, %47
  %49 = shl nuw nsw i32 %48, 8
  %50 = or disjoint i32 %49, %44
  %51 = or disjoint i32 %50, -16777216
  store i32 %51, ptr %.1, align 4
  %52 = ptrtoint ptr %.1 to i64
  %53 = add nsw i64 %52, 4
  %54 = inttoptr i64 %53 to ptr
  %55 = add nsw i32 %.039, %6
  %56 = add i32 %.038, -1
  %.not = icmp eq i32 %56, 0
  br i1 %.not, label %57, label %29, !llvm.loop !18

57:                                               ; preds = %29
  %58 = add nsw i64 %53, %20
  %59 = inttoptr i64 %58 to ptr
  %60 = add nsw i32 %.036, %7
  %61 = add i32 %.0, -1
  %.not41 = icmp eq i32 %61, 0
  br i1 %.not41, label %62, label %23, !llvm.loop !19

62:                                               ; preds = %57
  ret void
}